; Function Attrs: mustprogress uwtable
define dso_local noundef zeroext i1 @_ZN24cmBinUtilsLinuxELFLinker16ScanDependenciesERKNSt7__cxx1112basic_stringIcSt11char_traitsIcESaIcEEEN12cmStateEnums10TargetTypeE(ptr noundef nonnull align 8 dereferenceable(66) %0, ptr noundef nonnull align 8 dereferenceable(32) %1, i32 %2) unnamed_addr #3 align 2 personality ptr @__gxx_personality_v0 {
  %4 = alloca %"class.std::vector", align 8
  %5 = alloca %class.cmELF, align 8
  %6 = alloca %"class.std::__cxx11::basic_string", align 8
  %7 = alloca %"class.std::allocator.10", align 1
  call void @llvm.memset.p0.i64(ptr noundef nonnull align 8 dereferenceable(24) %4, i8 0, i64 24, i1 false)
  %8 = tail call noundef ptr @_ZNKSt7__cxx1112basic_stringIcSt11char_traitsIcESaIcEE5c_strEv(ptr noundef nonnull align 8 dereferenceable(32) %1) #13
  invoke void @_ZN5cmELFC1EPKc(ptr noundef nonnull align 8 dereferenceable(40) %5, ptr noundef %8)
          to label %9 unwind label %11

9:                                                ; preds = %3
  %10 = invoke noundef zeroext i1 @_ZNK5cmELF5ValidEv(ptr noundef nonnull align 8 dereferenceable(40) %5)
          to label %_ZNK5cmELFcvbEv.exit unwind label %13

_ZNK5cmELFcvbEv.exit:                             ; preds = %9
  br i1 %10, label %15, label %39

11:                                               ; preds = %3
  %12 = landingpad { ptr, i32 }
          cleanup
  br label %47

13:                                               ; preds = %9, %37, %34, %21, %15
  %14 = landingpad { ptr, i32 }
          cleanup
  br label %46

15:                                               ; preds = %_ZNK5cmELFcvbEv.exit
  %16 = invoke noundef zeroext i16 @_ZNK5cmELF10GetMachineEv(ptr noundef nonnull align 8 dereferenceable(40) %5)
          to label %17 unwind label %13

17:                                               ; preds = %15
  %.not = icmp eq i16 %16, 0
  br i1 %.not, label %37, label %18

18:                                               ; preds = %17
  %19 = getelementptr inbounds i8, ptr %0, i64 64
  %20 = load i16, ptr %19, align 8
  %.not9 = icmp eq i16 %20, 0
  br i1 %.not9, label %34, label %21

21:                                               ; preds = %18
  %22 = invoke noundef zeroext i16 @_ZNK5cmELF10GetMachineEv(ptr noundef nonnull align 8 dereferenceable(40) %5)
          to label %23 unwind label %13

23:                                               ; preds = %21
  %24 = load i16, ptr %19, align 8
  %.not10 = icmp eq i16 %22, %24
  br i1 %.not10, label %37, label %25

25:                                               ; preds = %23
  call void @_ZNSaIcEC1Ev(ptr noundef nonnull align 1 dereferenceable(1) %7) #13
  %26 = invoke noundef ptr @_ZNSt7__cxx1112basic_stringIcSt11char_traitsIcESaIcEE13_M_local_dataEv(ptr noundef nonnull align 8 dereferenceable(32) %6)
          to label %.noexc unwind label %30

.noexc:                                           ; preds = %25
  invoke void @_ZNSt7__cxx1112basic_stringIcSt11char_traitsIcESaIcEE12_Alloc_hiderC1EPcRKS3_(ptr noundef nonnull align 8 dereferenceable(8) %6, ptr noundef %26, ptr noundef nonnull align 1 dereferenceable(1) %7)
          to label %.noexc14 unwind label %30

.noexc14:                                         ; preds = %.noexc
  invoke void @_ZNSt7__cxx1112basic_stringIcSt11char_traitsIcESaIcEE12_M_constructIPKcEEvT_S8_St20forward_iterator_tag(ptr noundef nonnull align 8 dereferenceable(32) %6, ptr noundef nonnull @.str.5, ptr noundef nonnull getelementptr inbounds ([43 x i8], ptr @.str.5, i64 0, i64 42))
          to label %_ZNSt7__cxx1112basic_stringIcSt11char_traitsIcESaIcEEC2IS3_EEPKcRKS3_.exit unwind label %27

27:                                               ; preds = %.noexc14
  %28 = landingpad { ptr, i32 }
          cleanup
  call void @_ZNSaIcED2Ev(ptr noundef nonnull align 1 dereferenceable(1) %6) #13
  br label %.body

_ZNSt7__cxx1112basic_stringIcSt11char_traitsIcESaIcEEC2IS3_EEPKcRKS3_.exit: ; preds = %.noexc14
  invoke void @_ZN16cmBinUtilsLinker8SetErrorERKNSt7__cxx1112basic_stringIcSt11char_traitsIcESaIcEEE(ptr noundef nonnull align 8 dereferenceable(16) %0, ptr noundef nonnull align 8 dereferenceable(32) %6)
          to label %29 unwind label %32

29:                                               ; preds = %_ZNSt7__cxx1112basic_stringIcSt11char_traitsIcESaIcEEC2IS3_EEPKcRKS3_.exit
  call void @_ZNSt7__cxx1112basic_stringIcSt11char_traitsIcESaIcEED1Ev(ptr noundef nonnull align 8 dereferenceable(32) %6) #13
  call void @_ZNSaIcED1Ev(ptr noundef nonnull align 1 dereferenceable(1) %7) #13
  br label %39

30:                                               ; preds = %.noexc, %25
  %31 = landingpad { ptr, i32 }
          cleanup
  br label %.body

32:                                               ; preds = %_ZNSt7__cxx1112basic_stringIcSt11char_traitsIcESaIcEEC2IS3_EEPKcRKS3_.exit
  %33 = landingpad { ptr, i32 }
          cleanup
  call void @_ZNSt7__cxx1112basic_stringIcSt11char_traitsIcESaIcEED1Ev(ptr noundef nonnull align 8 dereferenceable(32) %6) #13
  br label %.body

.body:                                            ; preds = %30, %27, %32
  %.pn = phi { ptr, i32 } [ %33, %32 ], [ %31, %30 ], [ %28, %27 ]
  call void @_ZNSaIcED1Ev(ptr noundef nonnull align 1 dereferenceable(1) %7) #13
  br label %46

34:                                               ; preds = %18
  %35 = invoke noundef zeroext i16 @_ZNK5cmELF10GetMachineEv(ptr noundef nonnull align 8 dereferenceable(40) %5)
          to label %36 unwind label %13

36:                                               ; preds = %34
  store i16 %35, ptr %19, align 8
  br label %37

37:                                               ; preds = %36, %23, %17
  %38 = invoke noundef zeroext i1 @_ZN24cmBinUtilsLinuxELFLinker16ScanDependenciesERKNSt7__cxx1112basic_stringIcSt11char_traitsIcESaIcEEERKSt6vectorIS5_SaIS5_EE(ptr noundef nonnull align 8 dereferenceable(66) %0, ptr noundef nonnull align 8 dereferenceable(32) %1, ptr noundef nonnull align 8 dereferenceable(24) %4)
          to label %39 unwind label %13

39:                                               ; preds = %37, %_ZNK5cmELFcvbEv.exit, %29
  %.08 = phi i1 [ false, %29 ], [ false, %_ZNK5cmELFcvbEv.exit ], [ %38, %37 ]
  call void @_ZN5cmELFD1Ev(ptr noundef nonnull align 8 dereferenceable(40) %5) #13
  %40 = load ptr, ptr %4, align 8
  %41 = getelementptr inbounds i8, ptr %4, i64 8
  %42 = load ptr, ptr %41, align 8
  %.not4.i.i.i.i = icmp eq ptr %40, %42
  br i1 %.not4.i.i.i.i, label %_ZSt8_DestroyIPNSt7__cxx1112basic_stringIcSt11char_traitsIcESaIcEEES5_EvT_S7_RSaIT0_E.exit.i, label %.lr.ph.i.i.i.i

.lr.ph.i.i.i.i:                                   ; preds = %39, %.lr.ph.i.i.i.i
  %.05.i.i.i.i = phi ptr [ %43, %.lr.ph.i.i.i.i ], [ %40, %39 ]
  call void @_ZNSt7__cxx1112basic_stringIcSt11char_traitsIcESaIcEED1Ev(ptr noundef nonnull align 8 dereferenceable(32) %.05.i.i.i.i) #13
  %43 = getelementptr inbounds i8, ptr %.05.i.i.i.i, i64 32
  %.not.i.i.i.i = icmp eq ptr %43, %42
  br i1 %.not.i.i.i.i, label %_ZSt8_DestroyIPNSt7__cxx1112basic_stringIcSt11char_traitsIcESaIcEEES5_EvT_S7_RSaIT0_E.exitthread-pre-split.i, label %.lr.ph.i.i.i.i, !llvm.loop !11

_ZSt8_DestroyIPNSt7__cxx1112basic_stringIcSt11char_traitsIcESaIcEEES5_EvT_S7_RSaIT0_E.exitthread-pre-split.i: ; preds = %.lr.ph.i.i.i.i
  %.pr.i = load ptr, ptr %4, align 8
  br label %_ZSt8_DestroyIPNSt7__cxx1112basic_stringIcSt11char_traitsIcESaIcEEES5_EvT_S7_RSaIT0_E.exit.i

_ZSt8_DestroyIPNSt7__cxx1112basic_stringIcSt11char_traitsIcESaIcEEES5_EvT_S7_RSaIT0_E.exit.i: ; preds = %_ZSt8_DestroyIPNSt7__cxx1112basic_stringIcSt11char_traitsIcESaIcEEES5_EvT_S7_RSaIT0_E.exitthread-pre-split.i, %39
  %44 = phi ptr [ %.pr.i, %_ZSt8_DestroyIPNSt7__cxx1112basic_stringIcSt11char_traitsIcESaIcEEES5_EvT_S7_RSaIT0_E.exitthread-pre-split.i ], [ %40, %39 ]
  %.not.i.i.i = icmp eq ptr %44, null
  br i1 %.not.i.i.i, label %_ZNSt6vectorINSt7__cxx1112basic_stringIcSt11char_traitsIcESaIcEEESaIS5_EED2Ev.exit, label %45

45:                                               ; preds = %_ZSt8_DestroyIPNSt7__cxx1112basic_stringIcSt11char_traitsIcESaIcEEES5_EvT_S7_RSaIT0_E.exit.i
  call void @_ZdlPv(ptr noundef nonnull %44) #15
  br label %_ZNSt6vectorINSt7__cxx1112basic_stringIcSt11char_traitsIcESaIcEEESaIS5_EED2Ev.exit

_ZNSt6vectorINSt7__cxx1112basic_stringIcSt11char_traitsIcESaIcEEESaIS5_EED2Ev.exit: ; preds = %_ZSt8_DestroyIPNSt7__cxx1112basic_stringIcSt11char_traitsIcESaIcEEES5_EvT_S7_RSaIT0_E.exit.i, %45
  ret i1 %.08

46:                                               ; preds = %.body, %13
  %.pn.pn = phi { ptr, i32 } [ %.pn, %.body ], [ %14, %13 ]
  call void @_ZN5cmELFD1Ev(ptr noundef nonnull align 8 dereferenceable(40) %5) #13
  br label %47

47:                                               ; preds = %46, %11
  %.pn.pn.pn = phi { ptr, i32 } [ %.pn.pn, %46 ], [ %12, %11 ]
  call void @_ZNSt6vectorINSt7__cxx1112basic_stringIcSt11char_traitsIcESaIcEEESaIS5_EED2Ev(ptr noundef nonnull align 8 dereferenceable(24) %4) #13
  resume { ptr, i32 } %.pn.pn.pn
}